(lp1
S'mrcw0_si741'
p2
aS'mfmc0_si1132'
p3
aS'fexm0_sx111'
p4
aS'feme0_sx245'
p5
aS'mrtc0_sx378'
p6
aS'mdcm0_si2110'
p7
aS'mwad0_si1062'
p8
aS'mntw0_sx258'
p9
aS'msds0_sx177'
p10
aS'mjhi0_si555'
p11
aS'fsak0_sx130'
p12
aS'mpgr0_sx150'
p13
aS'mtxs0_sx250'
p14
aS'mjhi0_sx428'
p15
aS'msat1_sx353'
p16
aS'mjws0_sx243'
p17
aS'ftbr0_si921'
p18
aS'mbjv0_sx257'
p19
aS'mrjb1_sx300'
p20
aS'mgrp0_sx327'
p21
aS'fcjs0_sx347'
p22
aS'mrld0_sx244'
p23
aS'mbar0_si689'
p24
aS'mreh1_sx429'
p25
aS'fcdr1_si556'
p26
aS'mjlg1_sx112'
p27
aS'mses0_sx239'
p28
aS'falk0_si658'
p29
aS'fbmj0_sx66'
p30
aS'mbom0_sx204'
p31
aS'fcjs0_si2237'
p32
aS'fcmg0_si1142'
p33
aS'mjma0_si1495'
p34
aS'mtrt0_sx237'
p35
aS'fksr0_sx37'
p36
aS'mdac0_sx451'
p37
aS'mdks0_sx436'
p38
aS'fcdr1_sx16'
p39
aS'msfv0_sx362'
p40
aS'fjkl0_si2192'
p41
aS'fpmy0_si1153'
p42
aS'mpeb0_sx150'
p43
aS'mrsp0_si2059'
p44
aS'fmjf0_si1254'
p45
aS'mcxm0_sx181'
p46
aS'mwgr0_si2236'
p47
aS'mgxp0_sx277'
p48
aS'mrds0_sx447'
p49
aS'mesj0_sx97'
p50
aS'mjai0_sx74'
p51
aS'fexm0_sx201'
p52
aS'mjsr0_sx164'
p53
aS'mbsb0_sx93'
p54
aS'mrbc0_sx329'
p55
aS'mrem0_sx421'
p56
aS'mram0_sx15'
p57
aS'mfwk0_si619'
p58
a.